target datalayout = "e-m:e-p270:32:32-p271:32:32-p272:64:64-i64:64-i128:128-f80:128-n8:16:32:64-S128"
target triple = "x86_64-pc-linux-gnu"

%struct.ref = type { ptr, %struct.object_id, %struct.object_id, %struct.object_id, ptr, ptr, i8, i32, i32, i32, ptr, ptr, ptr, [0 x i8] }
%struct.object_id = type { [32 x i8], i32 }

; Function Attrs: nounwind uwtable
define dso_local void @reject_atomic_push(ptr noundef %0, i32 noundef %1) #0 {
  %3 = alloca ptr, align 8
  %4 = alloca i32, align 4
  %5 = alloca ptr, align 8
  store ptr %0, ptr %3, align 8, !tbaa !63
  store i32 %1, ptr %4, align 4, !tbaa !29
  call void @llvm.lifetime.start.p0(i64 8, ptr %5) #12
  %6 = load ptr, ptr %3, align 8, !tbaa !63
  store ptr %6, ptr %5, align 8, !tbaa !63
  br label %7

7:                                                ; preds = %28, %2
  %8 = load ptr, ptr %5, align 8, !tbaa !63
  %9 = icmp ne ptr %8, null
  br i1 %9, label %10, label %32

10:                                               ; preds = %7
  %11 = load ptr, ptr %5, align 8, !tbaa !63
  %12 = getelementptr inbounds nuw %struct.ref, ptr %11, i32 0, i32 12
  %13 = load ptr, ptr %12, align 8, !tbaa !63
  %14 = icmp ne ptr %13, null
  br i1 %14, label %19, label %15

15:                                               ; preds = %10
  %16 = load i32, ptr %4, align 4, !tbaa !29
  %17 = icmp ne i32 %16, 0
  br i1 %17, label %19, label %18

18:                                               ; preds = %15
  br label %28

19:                                               ; preds = %15, %10
  %20 = load ptr, ptr %5, align 8, !tbaa !63
  %21 = getelementptr inbounds nuw %struct.ref, ptr %20, i32 0, i32 9
  %22 = load i32, ptr %21, align 4, !tbaa !29
  switch i32 %22, label %26 [
    i32 0, label %23
    i32 1, label %23
    i32 12, label %23
  ]

23:                                               ; preds = %19, %19, %19
  %24 = load ptr, ptr %5, align 8, !tbaa !63
  %25 = getelementptr inbounds nuw %struct.ref, ptr %24, i32 0, i32 9
  store i32 13, ptr %25, align 4, !tbaa !29
  br label %28

26:                                               ; preds = %19
  br label %27

27:                                               ; preds = %26
  br label %28

28:                                               ; preds = %27, %23, %18
  %29 = load ptr, ptr %5, align 8, !tbaa !63
  %30 = getelementptr inbounds nuw %struct.ref, ptr %29, i32 0, i32 0
  %31 = load ptr, ptr %30, align 8, !tbaa !63
  store ptr %31, ptr %5, align 8, !tbaa !63
  br label %7, !llvm.loop !64

32:                                               ; preds = %7
  call void @llvm.lifetime.end.p0(i64 8, ptr %5) #12
  ret void
}