; Function Attrs: nofree norecurse nosync nounwind memory(readwrite, inaccessiblemem: none) uwtable
define dso_local void @reject_atomic_push(ptr noundef %0, i32 noundef %1) local_unnamed_addr #4 {
  %.not7 = icmp eq ptr %0, null
  br i1 %.not7, label %._crit_edge, label %.lr.ph

.lr.ph:                                           ; preds = %2
  %.not9 = icmp eq i32 %1, 0
  br i1 %.not9, label %.lr.ph.split, label %.lr.ph.split.us

.lr.ph.split.us:                                  ; preds = %.lr.ph, %6
  %.08.us = phi ptr [ %7, %6 ], [ %0, %.lr.ph ]
  %3 = getelementptr inbounds nuw i8, ptr %.08.us, i64 148
  %4 = load i32, ptr %3, align 4, !tbaa !55
  switch i32 %4, label %6 [
    i32 0, label %5
    i32 1, label %5
    i32 12, label %5
  ]

5:                                                ; preds = %.lr.ph.split.us, %.lr.ph.split.us, %.lr.ph.split.us
  store i32 13, ptr %3, align 4, !tbaa !55
  br label %6

6:                                                ; preds = %5, %.lr.ph.split.us
  %7 = load ptr, ptr %.08.us, align 8, !tbaa !56
  %.not.us = icmp eq ptr %7, null
  br i1 %.not.us, label %._crit_edge, label %.lr.ph.split.us, !llvm.loop !57

.lr.ph.split:                                     ; preds = %.lr.ph, %14
  %.08 = phi ptr [ %15, %14 ], [ %0, %.lr.ph ]
  %8 = getelementptr inbounds nuw i8, ptr %.08, i64 168
  %9 = load ptr, ptr %8, align 8, !tbaa !56
  %.not10 = icmp eq ptr %9, null
  br i1 %.not10, label %14, label %10

10:                                               ; preds = %.lr.ph.split
  %11 = getelementptr inbounds nuw i8, ptr %.08, i64 148
  %12 = load i32, ptr %11, align 4, !tbaa !55
  switch i32 %12, label %14 [
    i32 0, label %13
    i32 1, label %13
    i32 12, label %13
  ]

13:                                               ; preds = %10, %10, %10
  store i32 13, ptr %11, align 4, !tbaa !55
  br label %14

14:                                               ; preds = %10, %.lr.ph.split, %13
  %15 = load ptr, ptr %.08, align 8, !tbaa !56
  %.not = icmp eq ptr %15, null
  br i1 %.not, label %._crit_edge, label %.lr.ph.split, !llvm.loop !57

._crit_edge:                                      ; preds = %6, %14, %2
  ret void
}